target datalayout = "e-m:e-p270:32:32-p271:32:32-p272:64:64-i64:64-i128:128-f80:128-n8:16:32:64-S128"
target triple = "x86_64-pc-linux-gnu"

; Function Attrs: mustprogress uwtable
define internal noundef i32 @_ZL7str_lenP9lua_State(ptr noundef %0) #2 {
  %2 = alloca ptr, align 8
  %3 = alloca i64, align 8
  store ptr %0, ptr %2, align 8, !tbaa !20
  call void @llvm.lifetime.start.p0(i64 8, ptr %3) #13
  %4 = load ptr, ptr %2, align 8, !tbaa !20
  %5 = call noundef ptr @_Z17luaL_checklstringP9lua_StateiPm(ptr noundef %4, i32 noundef 1, ptr noundef %3)
  %6 = load ptr, ptr %2, align 8, !tbaa !20
  %7 = load i64, ptr %3, align 8, !tbaa !22
  %8 = trunc i64 %7 to i32
  call void @_Z15lua_pushintegerP9lua_Statei(ptr noundef %6, i32 noundef %8)
  call void @llvm.lifetime.end.p0(i64 8, ptr %3) #13
  ret i32 1
}