; Function Attrs: mustprogress uwtable
define internal noundef i32 @_ZL7str_lenP9lua_State(ptr noundef %0) #0 {
  %2 = alloca i64, align 8
  call void @llvm.lifetime.start.p0(i64 8, ptr nonnull %2) #14
  %3 = call noundef ptr @_Z17luaL_checklstringP9lua_StateiPm(ptr noundef %0, i32 noundef 1, ptr noundef nonnull %2)
  %4 = load i64, ptr %2, align 8, !tbaa !4
  %5 = trunc i64 %4 to i32
  call void @_Z15lua_pushintegerP9lua_Statei(ptr noundef %0, i32 noundef %5)
  call void @llvm.lifetime.end.p0(i64 8, ptr nonnull %2) #14
  ret i32 1
}